target datalayout = "e-m:e-p270:32:32-p271:32:32-p272:64:64-i64:64-i128:128-f80:128-n8:16:32:64-S128"
target triple = "x86_64-pc-linux-gnu"

%struct._GLXGraphicsConfigInfo = type { i32, i32, ptr, ptr }
%struct.OGLContext = type { ptr, i32, i32, float, i32, i32, i8, i8, i8, i8, i32, i8, ptr, i32, i32, i8 }
%struct._GLXCtxInfo = type { ptr, ptr, i64 }

@awt_display = external global ptr, align 8
@.str.6 = private unnamed_addr constant [35 x i8] c"GLXGraphicsConfig_getGLXConfigInfo\00", align 1
@usingXinerama = external global i32, align 4
@.str.7 = private unnamed_addr constant [62 x i8] c"GLXGraphicsConfig_getGLXConfigInfo: could not create fbconfig\00", align 1
@sharedContext = internal global ptr null, align 8
@j2d_glXCreateNewContext = external global ptr, align 8
@.str.8 = private unnamed_addr constant [68 x i8] c"GLXGraphicsConfig_getGLXConfigInfo: could not create shared context\00", align 1
@.str.9 = private unnamed_addr constant [65 x i8] c"GLXGraphicsConfig_getGLXConfigInfo: could not create GLX context\00", align 1
@.str.10 = private unnamed_addr constant [69 x i8] c"GLXGraphicsConfig_getGLXConfigInfo: could not create scratch pbuffer\00", align 1
@j2d_glXDestroyContext = external global ptr, align 8
@j2d_glXMakeContextCurrent = external global ptr, align 8
@j2d_glGetString = external global ptr, align 8
@.str.11 = private unnamed_addr constant [54 x i8] c"GLXGraphicsConfig_getGLXConfigInfo: OpenGL version=%s\00", align 1
@.str.12 = private unnamed_addr constant [5 x i8] c"null\00", align 1
@.str.13 = private unnamed_addr constant [59 x i8] c"GLXGraphicsConfig_getGLXConfigInfo: OpenGL 1.2 is required\00", align 1
@j2d_glXDestroyPbuffer = external global ptr, align 8
@j2d_glXGetFBConfigAttrib = external global ptr, align 8
@.str.14 = private unnamed_addr constant [58 x i8] c"GLXGraphicsConfig_getGLXConfigInfo: could not create oglc\00", align 1
@.str.15 = private unnamed_addr constant [74 x i8] c"GLXGraphicsConfig_getGLXConfigInfo: could not allocate memory for glxinfo\00", align 1
@.str.23 = private unnamed_addr constant [41 x i8] c"GLXGC_DestroyOGLContext: context is null\00", align 1
@__const.GLXGC_InitScratchPbuffer.pbattrlist = private unnamed_addr constant [7 x i32] [i32 32833, i32 4, i32 32832, i32 4, i32 32795, i32 0, i32 0], align 16
@j2d_glXCreatePbuffer = external global ptr, align 8
@.str.32 = private unnamed_addr constant [57 x i8] c"GLXGC_InitOGLContext: could not allocate memory for oglc\00", align 1
@.str.33 = private unnamed_addr constant [60 x i8] c"GLXGC_InitOGLContext: could not allocate memory for ctxinfo\00", align 1

; Function Attrs: nounwind uwtable
define internal void @GLXGC_DestroyOGLContext(ptr noundef %0) #0 {
  %2 = alloca ptr, align 8
  %3 = alloca ptr, align 8
  store ptr %0, ptr %2, align 8
  %4 = load ptr, ptr %2, align 8
  %5 = icmp eq ptr %4, null
  br i1 %5, label %6, label %7

6:                                                ; preds = %1
  call void (i32, i8, ptr, ...) @J2dTraceImpl(i32 noundef 1, i8 noundef zeroext 1, ptr noundef @.str.23)
  br label %43

7:                                                ; preds = %1
  %8 = load ptr, ptr %2, align 8
  call void @OGLContext_DestroyContextResources(ptr noundef %8)
  %9 = load ptr, ptr %2, align 8
  %10 = getelementptr inbounds %struct.OGLContext, ptr %9, i32 0, i32 0
  %11 = load ptr, ptr %10, align 8
  store ptr %11, ptr %3, align 8
  %12 = load ptr, ptr %3, align 8
  %13 = icmp ne ptr %12, null
  br i1 %13, label %14, label %41

14:                                               ; preds = %7
  %15 = load ptr, ptr @j2d_glXMakeContextCurrent, align 8
  %16 = load ptr, ptr @awt_display, align 8
  %17 = call i32 %15(ptr noundef %16, i64 noundef 0, i64 noundef 0, ptr noundef null)
  %18 = load ptr, ptr %3, align 8
  %19 = getelementptr inbounds %struct._GLXCtxInfo, ptr %18, i32 0, i32 0
  %20 = load ptr, ptr %19, align 8
  %21 = icmp ne ptr %20, null
  br i1 %21, label %22, label %28

22:                                               ; preds = %14
  %23 = load ptr, ptr @j2d_glXDestroyContext, align 8
  %24 = load ptr, ptr @awt_display, align 8
  %25 = load ptr, ptr %3, align 8
  %26 = getelementptr inbounds %struct._GLXCtxInfo, ptr %25, i32 0, i32 0
  %27 = load ptr, ptr %26, align 8
  call void %23(ptr noundef %24, ptr noundef %27)
  br label %28

28:                                               ; preds = %22, %14
  %29 = load ptr, ptr %3, align 8
  %30 = getelementptr inbounds %struct._GLXCtxInfo, ptr %29, i32 0, i32 2
  %31 = load i64, ptr %30, align 8
  %32 = icmp ne i64 %31, 0
  br i1 %32, label %33, label %39

33:                                               ; preds = %28
  %34 = load ptr, ptr @j2d_glXDestroyPbuffer, align 8
  %35 = load ptr, ptr @awt_display, align 8
  %36 = load ptr, ptr %3, align 8
  %37 = getelementptr inbounds %struct._GLXCtxInfo, ptr %36, i32 0, i32 2
  %38 = load i64, ptr %37, align 8
  call void %34(ptr noundef %35, i64 noundef %38)
  br label %39

39:                                               ; preds = %33, %28
  %40 = load ptr, ptr %3, align 8
  call void @free(ptr noundef %40) #6
  br label %41

41:                                               ; preds = %39, %7
  %42 = load ptr, ptr %2, align 8
  call void @free(ptr noundef %42) #6
  br label %43

43:                                               ; preds = %41, %6
  ret void
}

; Function Attrs: nounwind uwtable
define internal ptr @GLXGC_InitOGLContext(ptr noundef %0, ptr noundef %1, i64 noundef %2, i32 noundef %3) #0 {
  %5 = alloca ptr, align 8
  %6 = alloca ptr, align 8
  %7 = alloca ptr, align 8
  %8 = alloca i64, align 8
  %9 = alloca i32, align 4
  %10 = alloca ptr, align 8
  %11 = alloca ptr, align 8
  store ptr %0, ptr %6, align 8
  store ptr %1, ptr %7, align 8
  store i64 %2, ptr %8, align 8
  store i32 %3, ptr %9, align 4
  %12 = call noalias ptr @malloc(i64 noundef 64) #7
  store ptr %12, ptr %10, align 8
  %13 = load ptr, ptr %10, align 8
  %14 = icmp eq ptr %13, null
  br i1 %14, label %15, label %16

15:                                               ; preds = %4
  call void (i32, i8, ptr, ...) @J2dTraceImpl(i32 noundef 1, i8 noundef zeroext 1, ptr noundef @.str.32)
  store ptr null, ptr %5, align 8
  br label %40

16:                                               ; preds = %4
  %17 = load ptr, ptr %10, align 8
  call void @llvm.memset.p0.i64(ptr align 8 %17, i8 0, i64 64, i1 false)
  %18 = call noalias ptr @malloc(i64 noundef 24) #7
  store ptr %18, ptr %11, align 8
  %19 = load ptr, ptr %11, align 8
  %20 = icmp eq ptr %19, null
  br i1 %20, label %21, label %23

21:                                               ; preds = %16
  call void (i32, i8, ptr, ...) @J2dTraceImpl(i32 noundef 1, i8 noundef zeroext 1, ptr noundef @.str.33)
  %22 = load ptr, ptr %10, align 8
  call void @free(ptr noundef %22) #6
  store ptr null, ptr %5, align 8
  br label %40

23:                                               ; preds = %16
  %24 = load ptr, ptr %6, align 8
  %25 = load ptr, ptr %11, align 8
  %26 = getelementptr inbounds %struct._GLXCtxInfo, ptr %25, i32 0, i32 1
  store ptr %24, ptr %26, align 8
  %27 = load ptr, ptr %7, align 8
  %28 = load ptr, ptr %11, align 8
  %29 = getelementptr inbounds %struct._GLXCtxInfo, ptr %28, i32 0, i32 0
  store ptr %27, ptr %29, align 8
  %30 = load i64, ptr %8, align 8
  %31 = load ptr, ptr %11, align 8
  %32 = getelementptr inbounds %struct._GLXCtxInfo, ptr %31, i32 0, i32 2
  store i64 %30, ptr %32, align 8
  %33 = load ptr, ptr %11, align 8
  %34 = load ptr, ptr %10, align 8
  %35 = getelementptr inbounds %struct.OGLContext, ptr %34, i32 0, i32 0
  store ptr %33, ptr %35, align 8
  %36 = load i32, ptr %9, align 4
  %37 = load ptr, ptr %10, align 8
  %38 = getelementptr inbounds %struct.OGLContext, ptr %37, i32 0, i32 1
  store i32 %36, ptr %38, align 8
  %39 = load ptr, ptr %10, align 8
  store ptr %39, ptr %5, align 8
  br label %40

40:                                               ; preds = %23, %21, %15
  %41 = load ptr, ptr %5, align 8
  ret ptr %41
}

; Function Attrs: nounwind uwtable
define internal i64 @GLXGC_InitScratchPbuffer(ptr noundef %0) #0 {
  %2 = alloca ptr, align 8
  %3 = alloca [7 x i32], align 16
  store ptr %0, ptr %2, align 8
  call void @llvm.memcpy.p0.p0.i64(ptr align 16 %3, ptr align 16 @__const.GLXGC_InitScratchPbuffer.pbattrlist, i64 28, i1 false)
  %4 = load ptr, ptr @j2d_glXCreatePbuffer, align 8
  %5 = load ptr, ptr @awt_display, align 8
  %6 = load ptr, ptr %2, align 8
  %7 = getelementptr inbounds [7 x i32], ptr %3, i64 0, i64 0
  %8 = call i64 %4(ptr noundef %5, ptr noundef %6, ptr noundef %7)
  ret i64 %8
}

; Function Attrs: nounwind uwtable
define i64 @Java_sun_java2d_opengl_GLXGraphicsConfig_getGLXConfigInfo(ptr noundef %0, ptr noundef %1, i32 noundef %2, i32 noundef %3) #0 {
  %5 = alloca i64, align 8
  %6 = alloca ptr, align 8
  %7 = alloca ptr, align 8
  %8 = alloca i32, align 4
  %9 = alloca i32, align 4
  %10 = alloca ptr, align 8
  %11 = alloca ptr, align 8
  %12 = alloca ptr, align 8
  %13 = alloca i64, align 8
  %14 = alloca ptr, align 8
  %15 = alloca i32, align 4
  %16 = alloca i32, align 4
  %17 = alloca ptr, align 8
  store ptr %0, ptr %6, align 8
  store ptr %1, ptr %7, align 8
  store i32 %2, ptr %8, align 4
  store i32 %3, ptr %9, align 4
  store i32 0, ptr %15, align 4
  call void (i32, i8, ptr, ...) @J2dTraceImpl(i32 noundef 3, i8 noundef zeroext 1, ptr noundef @.str.6)
  %18 = load i32, ptr @usingXinerama, align 4
  %19 = icmp ne i32 %18, 0
  br i1 %19, label %20, label %21

20:                                               ; preds = %4
  store i32 0, ptr %8, align 4
  br label %21

21:                                               ; preds = %20, %4
  %22 = load ptr, ptr %6, align 8
  %23 = load i32, ptr %8, align 4
  %24 = load i32, ptr %9, align 4
  %25 = sext i32 %24 to i64
  %26 = call ptr @GLXGC_InitFBConfig(ptr noundef %22, i32 noundef %23, i64 noundef %25)
  store ptr %26, ptr %11, align 8
  %27 = load ptr, ptr %11, align 8
  %28 = icmp eq ptr %27, null
  br i1 %28, label %29, label %30

29:                                               ; preds = %21
  call void (i32, i8, ptr, ...) @J2dTraceImpl(i32 noundef 1, i8 noundef zeroext 1, ptr noundef @.str.7)
  store i64 0, ptr %5, align 8
  br label %138

30:                                               ; preds = %21
  %31 = load ptr, ptr @sharedContext, align 8
  %32 = icmp eq ptr %31, null
  br i1 %32, label %33, label %42

33:                                               ; preds = %30
  %34 = load ptr, ptr @j2d_glXCreateNewContext, align 8
  %35 = load ptr, ptr @awt_display, align 8
  %36 = load ptr, ptr %11, align 8
  %37 = call ptr %34(ptr noundef %35, ptr noundef %36, i32 noundef 32788, ptr noundef null, i32 noundef 1)
  store ptr %37, ptr @sharedContext, align 8
  %38 = load ptr, ptr @sharedContext, align 8
  %39 = icmp eq ptr %38, null
  br i1 %39, label %40, label %41

40:                                               ; preds = %33
  call void (i32, i8, ptr, ...) @J2dTraceImpl(i32 noundef 1, i8 noundef zeroext 1, ptr noundef @.str.8)
  store i64 0, ptr %5, align 8
  br label %138

41:                                               ; preds = %33
  br label %42

42:                                               ; preds = %41, %30
  %43 = load ptr, ptr @j2d_glXCreateNewContext, align 8
  %44 = load ptr, ptr @awt_display, align 8
  %45 = load ptr, ptr %11, align 8
  %46 = load ptr, ptr @sharedContext, align 8
  %47 = call ptr %43(ptr noundef %44, ptr noundef %45, i32 noundef 32788, ptr noundef %46, i32 noundef 1)
  store ptr %47, ptr %12, align 8
  %48 = load ptr, ptr %12, align 8
  %49 = icmp eq ptr %48, null
  br i1 %49, label %50, label %51

50:                                               ; preds = %42
  call void (i32, i8, ptr, ...) @J2dTraceImpl(i32 noundef 1, i8 noundef zeroext 1, ptr noundef @.str.9)
  store i64 0, ptr %5, align 8
  br label %138

51:                                               ; preds = %42
  %52 = load ptr, ptr %11, align 8
  %53 = call i64 @GLXGC_InitScratchPbuffer(ptr noundef %52)
  store i64 %53, ptr %13, align 8
  %54 = load i64, ptr %13, align 8
  %55 = icmp eq i64 %54, 0
  br i1 %55, label %56, label %60

56:                                               ; preds = %51
  call void (i32, i8, ptr, ...) @J2dTraceImpl(i32 noundef 1, i8 noundef zeroext 1, ptr noundef @.str.10)
  %57 = load ptr, ptr @j2d_glXDestroyContext, align 8
  %58 = load ptr, ptr @awt_display, align 8
  %59 = load ptr, ptr %12, align 8
  call void %57(ptr noundef %58, ptr noundef %59)
  store i64 0, ptr %5, align 8
  br label %138

60:                                               ; preds = %51
  %61 = load ptr, ptr @j2d_glXMakeContextCurrent, align 8
  %62 = load ptr, ptr @awt_display, align 8
  %63 = load i64, ptr %13, align 8
  %64 = load i64, ptr %13, align 8
  %65 = load ptr, ptr %12, align 8
  %66 = call i32 %61(ptr noundef %62, i64 noundef %63, i64 noundef %64, ptr noundef %65)
  %67 = load ptr, ptr @j2d_glGetString, align 8
  %68 = call ptr %67(i32 noundef 7938)
  store ptr %68, ptr %17, align 8
  %69 = load ptr, ptr %6, align 8
  call void @OGLContext_GetExtensionInfo(ptr noundef %69, ptr noundef %15)
  %70 = load ptr, ptr @j2d_glXMakeContextCurrent, align 8
  %71 = load ptr, ptr @awt_display, align 8
  %72 = call i32 %70(ptr noundef %71, i64 noundef 0, i64 noundef 0, ptr noundef null)
  %73 = load ptr, ptr %17, align 8
  %74 = icmp eq ptr %73, null
  br i1 %74, label %75, label %76

75:                                               ; preds = %60
  br label %78

76:                                               ; preds = %60
  %77 = load ptr, ptr %17, align 8
  br label %78

78:                                               ; preds = %76, %75
  %79 = phi ptr [ @.str.12, %75 ], [ %77, %76 ]
  call void (i32, i8, ptr, ...) @J2dTraceImpl(i32 noundef 3, i8 noundef zeroext 1, ptr noundef @.str.11, ptr noundef %79)
  %80 = load ptr, ptr %17, align 8
  %81 = call zeroext i8 @OGLContext_IsVersionSupported(ptr noundef %80)
  %82 = icmp ne i8 %81, 0
  br i1 %82, label %90, label %83

83:                                               ; preds = %78
  call void (i32, i8, ptr, ...) @J2dTraceImpl(i32 noundef 1, i8 noundef zeroext 1, ptr noundef @.str.13)
  %84 = load ptr, ptr @j2d_glXDestroyPbuffer, align 8
  %85 = load ptr, ptr @awt_display, align 8
  %86 = load i64, ptr %13, align 8
  call void %84(ptr noundef %85, i64 noundef %86)
  %87 = load ptr, ptr @j2d_glXDestroyContext, align 8
  %88 = load ptr, ptr @awt_display, align 8
  %89 = load ptr, ptr %12, align 8
  call void %87(ptr noundef %88, ptr noundef %89)
  store i64 0, ptr %5, align 8
  br label %138

90:                                               ; preds = %78
  %91 = load ptr, ptr @j2d_glXGetFBConfigAttrib, align 8
  %92 = load ptr, ptr @awt_display, align 8
  %93 = load ptr, ptr %11, align 8
  %94 = call i32 %91(ptr noundef %92, ptr noundef %93, i32 noundef 5, ptr noundef %16)
  %95 = load i32, ptr %16, align 4
  %96 = icmp ne i32 %95, 0
  br i1 %96, label %97, label %102

97:                                               ; preds = %90
  %98 = load i32, ptr %15, align 4
  %99 = sext i32 %98 to i64
  %100 = or i64 %99, 65536
  %101 = trunc i64 %100 to i32
  store i32 %101, ptr %15, align 4
  br label %102

102:                                              ; preds = %97, %90
  %103 = load ptr, ptr %11, align 8
  %104 = load ptr, ptr %12, align 8
  %105 = load i64, ptr %13, align 8
  %106 = load i32, ptr %15, align 4
  %107 = call ptr @GLXGC_InitOGLContext(ptr noundef %103, ptr noundef %104, i64 noundef %105, i32 noundef %106)
  store ptr %107, ptr %10, align 8
  %108 = load ptr, ptr %10, align 8
  %109 = icmp eq ptr %108, null
  br i1 %109, label %110, label %117

110:                                              ; preds = %102
  call void (i32, i8, ptr, ...) @J2dTraceImpl(i32 noundef 1, i8 noundef zeroext 1, ptr noundef @.str.14)
  %111 = load ptr, ptr @j2d_glXDestroyPbuffer, align 8
  %112 = load ptr, ptr @awt_display, align 8
  %113 = load i64, ptr %13, align 8
  call void %111(ptr noundef %112, i64 noundef %113)
  %114 = load ptr, ptr @j2d_glXDestroyContext, align 8
  %115 = load ptr, ptr @awt_display, align 8
  %116 = load ptr, ptr %12, align 8
  call void %114(ptr noundef %115, ptr noundef %116)
  store i64 0, ptr %5, align 8
  br label %138

117:                                              ; preds = %102
  %118 = call noalias ptr @malloc(i64 noundef 24) #7
  store ptr %118, ptr %14, align 8
  %119 = load ptr, ptr %14, align 8
  %120 = icmp eq ptr %119, null
  br i1 %120, label %121, label %123

121:                                              ; preds = %117
  call void (i32, i8, ptr, ...) @J2dTraceImpl(i32 noundef 1, i8 noundef zeroext 1, ptr noundef @.str.15)
  %122 = load ptr, ptr %10, align 8
  call void @GLXGC_DestroyOGLContext(ptr noundef %122)
  store i64 0, ptr %5, align 8
  br label %138

123:                                              ; preds = %117
  %124 = load i32, ptr %8, align 4
  %125 = load ptr, ptr %14, align 8
  %126 = getelementptr inbounds %struct._GLXGraphicsConfigInfo, ptr %125, i32 0, i32 0
  store i32 %124, ptr %126, align 8
  %127 = load i32, ptr %9, align 4
  %128 = load ptr, ptr %14, align 8
  %129 = getelementptr inbounds %struct._GLXGraphicsConfigInfo, ptr %128, i32 0, i32 1
  store i32 %127, ptr %129, align 4
  %130 = load ptr, ptr %10, align 8
  %131 = load ptr, ptr %14, align 8
  %132 = getelementptr inbounds %struct._GLXGraphicsConfigInfo, ptr %131, i32 0, i32 2
  store ptr %130, ptr %132, align 8
  %133 = load ptr, ptr %11, align 8
  %134 = load ptr, ptr %14, align 8
  %135 = getelementptr inbounds %struct._GLXGraphicsConfigInfo, ptr %134, i32 0, i32 3
  store ptr %133, ptr %135, align 8
  %136 = load ptr, ptr %14, align 8
  %137 = ptrtoint ptr %136 to i64
  store i64 %137, ptr %5, align 8
  br label %138

138:                                              ; preds = %123, %121, %110, %83, %56, %50, %40, %29
  %139 = load i64, ptr %5, align 8
  ret i64 %139
}