; Function Attrs: nounwind uwtable
define noundef i64 @Java_sun_java2d_opengl_GLXGraphicsConfig_getGLXConfigInfo(ptr noundef %0, ptr nocapture noundef readnone %1, i32 noundef %2, i32 noundef %3) local_unnamed_addr #0 {
  %5 = alloca [7 x i32], align 16
  %6 = alloca i32, align 4
  %7 = alloca i32, align 4
  store i32 0, ptr %6, align 4
  tail call void (i32, i8, ptr, ...) @J2dTraceImpl(i32 noundef 3, i8 noundef zeroext 1, ptr noundef nonnull @.str.6) #8
  %8 = load i32, ptr @usingXinerama, align 4
  %.not = icmp eq i32 %8, 0
  %spec.select = select i1 %.not, i32 %2, i32 0
  %9 = sext i32 %3 to i64
  %10 = tail call fastcc ptr @GLXGC_InitFBConfig(i32 noundef %spec.select, i64 noundef %9)
  %11 = icmp eq ptr %10, null
  br i1 %11, label %12, label %13

12:                                               ; preds = %4
  tail call void (i32, i8, ptr, ...) @J2dTraceImpl(i32 noundef 1, i8 noundef zeroext 1, ptr noundef nonnull @.str.7) #8
  br label %102

13:                                               ; preds = %4
  %14 = load ptr, ptr @sharedContext, align 8
  %15 = icmp eq ptr %14, null
  br i1 %15, label %16, label %22

16:                                               ; preds = %13
  %17 = load ptr, ptr @j2d_glXCreateNewContext, align 8
  %18 = load ptr, ptr @awt_display, align 8
  %19 = tail call ptr %17(ptr noundef %18, ptr noundef nonnull %10, i32 noundef 32788, ptr noundef null, i32 noundef 1) #8
  store ptr %19, ptr @sharedContext, align 8
  %20 = icmp eq ptr %19, null
  br i1 %20, label %21, label %22

21:                                               ; preds = %16
  tail call void (i32, i8, ptr, ...) @J2dTraceImpl(i32 noundef 1, i8 noundef zeroext 1, ptr noundef nonnull @.str.8) #8
  br label %102

22:                                               ; preds = %16, %13
  %23 = phi ptr [ %19, %16 ], [ %14, %13 ]
  %24 = load ptr, ptr @j2d_glXCreateNewContext, align 8
  %25 = load ptr, ptr @awt_display, align 8
  %26 = tail call ptr %24(ptr noundef %25, ptr noundef nonnull %10, i32 noundef 32788, ptr noundef nonnull %23, i32 noundef 1) #8
  %27 = icmp eq ptr %26, null
  br i1 %27, label %28, label %29

28:                                               ; preds = %22
  tail call void (i32, i8, ptr, ...) @J2dTraceImpl(i32 noundef 1, i8 noundef zeroext 1, ptr noundef nonnull @.str.9) #8
  br label %102

29:                                               ; preds = %22
  call void @llvm.lifetime.start.p0(i64 28, ptr nonnull %5)
  call void @llvm.memcpy.p0.p0.i64(ptr noundef nonnull align 16 dereferenceable(28) %5, ptr noundef nonnull align 16 dereferenceable(28) @__const.GLXGC_InitScratchPbuffer.pbattrlist, i64 28, i1 false)
  %30 = load ptr, ptr @j2d_glXCreatePbuffer, align 8
  %31 = load ptr, ptr @awt_display, align 8
  %32 = call i64 %30(ptr noundef %31, ptr noundef nonnull %10, ptr noundef nonnull %5) #8
  call void @llvm.lifetime.end.p0(i64 28, ptr nonnull %5)
  %33 = icmp eq i64 %32, 0
  br i1 %33, label %34, label %37

34:                                               ; preds = %29
  call void (i32, i8, ptr, ...) @J2dTraceImpl(i32 noundef 1, i8 noundef zeroext 1, ptr noundef nonnull @.str.10) #8
  %35 = load ptr, ptr @j2d_glXDestroyContext, align 8
  %36 = load ptr, ptr @awt_display, align 8
  call void %35(ptr noundef %36, ptr noundef nonnull %26) #8
  br label %102

37:                                               ; preds = %29
  %38 = load ptr, ptr @j2d_glXMakeContextCurrent, align 8
  %39 = load ptr, ptr @awt_display, align 8
  %40 = call i32 %38(ptr noundef %39, i64 noundef %32, i64 noundef %32, ptr noundef nonnull %26) #8
  %41 = load ptr, ptr @j2d_glGetString, align 8
  %42 = call ptr %41(i32 noundef 7938) #8
  call void @OGLContext_GetExtensionInfo(ptr noundef %0, ptr noundef nonnull %6) #8
  %43 = load ptr, ptr @j2d_glXMakeContextCurrent, align 8
  %44 = load ptr, ptr @awt_display, align 8
  %45 = call i32 %43(ptr noundef %44, i64 noundef 0, i64 noundef 0, ptr noundef null) #8
  %46 = icmp eq ptr %42, null
  %47 = select i1 %46, ptr @.str.12, ptr %42
  call void (i32, i8, ptr, ...) @J2dTraceImpl(i32 noundef 3, i8 noundef zeroext 1, ptr noundef nonnull @.str.11, ptr noundef nonnull %47) #8
  %48 = call zeroext i8 @OGLContext_IsVersionSupported(ptr noundef %42) #8
  %.not43 = icmp eq i8 %48, 0
  br i1 %.not43, label %49, label %54

49:                                               ; preds = %37
  call void (i32, i8, ptr, ...) @J2dTraceImpl(i32 noundef 1, i8 noundef zeroext 1, ptr noundef nonnull @.str.13) #8
  %50 = load ptr, ptr @j2d_glXDestroyPbuffer, align 8
  %51 = load ptr, ptr @awt_display, align 8
  call void %50(ptr noundef %51, i64 noundef %32) #8
  %52 = load ptr, ptr @j2d_glXDestroyContext, align 8
  %53 = load ptr, ptr @awt_display, align 8
  call void %52(ptr noundef %53, ptr noundef nonnull %26) #8
  br label %102

54:                                               ; preds = %37
  %55 = load ptr, ptr @j2d_glXGetFBConfigAttrib, align 8
  %56 = load ptr, ptr @awt_display, align 8
  %57 = call i32 %55(ptr noundef %56, ptr noundef nonnull %10, i32 noundef 5, ptr noundef nonnull %7) #8
  %58 = load i32, ptr %7, align 4
  %.not44 = icmp eq i32 %58, 0
  %.pre = load i32, ptr %6, align 4
  br i1 %.not44, label %61, label %59

59:                                               ; preds = %54
  %60 = or i32 %.pre, 65536
  store i32 %60, ptr %6, align 4
  br label %61

61:                                               ; preds = %59, %54
  %62 = phi i32 [ %60, %59 ], [ %.pre, %54 ]
  %calloc.i = call dereferenceable_or_null(64) ptr @calloc(i64 1, i64 64)
  %63 = icmp eq ptr %calloc.i, null
  br i1 %63, label %64, label %65

64:                                               ; preds = %61
  call void (i32, i8, ptr, ...) @J2dTraceImpl(i32 noundef 1, i8 noundef zeroext 1, ptr noundef nonnull @.str.32) #8
  br label %69

65:                                               ; preds = %61
  %66 = call noalias dereferenceable_or_null(24) ptr @malloc(i64 noundef 24) #9
  %67 = icmp eq ptr %66, null
  br i1 %67, label %68, label %74

68:                                               ; preds = %65
  call void (i32, i8, ptr, ...) @J2dTraceImpl(i32 noundef 1, i8 noundef zeroext 1, ptr noundef nonnull @.str.33) #8
  call void @free(ptr noundef nonnull %calloc.i) #8
  br label %69

69:                                               ; preds = %64, %68
  call void (i32, i8, ptr, ...) @J2dTraceImpl(i32 noundef 1, i8 noundef zeroext 1, ptr noundef nonnull @.str.14) #8
  %70 = load ptr, ptr @j2d_glXDestroyPbuffer, align 8
  %71 = load ptr, ptr @awt_display, align 8
  call void %70(ptr noundef %71, i64 noundef %32) #8
  %72 = load ptr, ptr @j2d_glXDestroyContext, align 8
  %73 = load ptr, ptr @awt_display, align 8
  call void %72(ptr noundef %73, ptr noundef nonnull %26) #8
  br label %102

74:                                               ; preds = %65
  %75 = getelementptr inbounds i8, ptr %66, i64 8
  store ptr %10, ptr %75, align 8
  store ptr %26, ptr %66, align 8
  %76 = getelementptr inbounds i8, ptr %66, i64 16
  store i64 %32, ptr %76, align 8
  store ptr %66, ptr %calloc.i, align 8
  %77 = getelementptr inbounds i8, ptr %calloc.i, i64 8
  store i32 %62, ptr %77, align 8
  %78 = call noalias dereferenceable_or_null(24) ptr @malloc(i64 noundef 24) #9
  %79 = icmp eq ptr %78, null
  br i1 %79, label %80, label %97

80:                                               ; preds = %74
  call void (i32, i8, ptr, ...) @J2dTraceImpl(i32 noundef 1, i8 noundef zeroext 1, ptr noundef nonnull @.str.15) #8
  call void @OGLContext_DestroyContextResources(ptr noundef nonnull %calloc.i) #8
  %81 = load ptr, ptr %calloc.i, align 8
  %.not.i = icmp eq ptr %81, null
  br i1 %.not.i, label %GLXGC_DestroyOGLContext.exit, label %82

82:                                               ; preds = %80
  %83 = load ptr, ptr @j2d_glXMakeContextCurrent, align 8
  %84 = load ptr, ptr @awt_display, align 8
  %85 = call i32 %83(ptr noundef %84, i64 noundef 0, i64 noundef 0, ptr noundef null) #8
  %86 = load ptr, ptr %81, align 8
  %.not13.i = icmp eq ptr %86, null
  br i1 %.not13.i, label %90, label %87

87:                                               ; preds = %82
  %88 = load ptr, ptr @j2d_glXDestroyContext, align 8
  %89 = load ptr, ptr @awt_display, align 8
  call void %88(ptr noundef %89, ptr noundef nonnull %86) #8
  br label %90

90:                                               ; preds = %87, %82
  %91 = getelementptr inbounds i8, ptr %81, i64 16
  %92 = load i64, ptr %91, align 8
  %.not14.i = icmp eq i64 %92, 0
  br i1 %.not14.i, label %96, label %93

93:                                               ; preds = %90
  %94 = load ptr, ptr @j2d_glXDestroyPbuffer, align 8
  %95 = load ptr, ptr @awt_display, align 8
  call void %94(ptr noundef %95, i64 noundef %92) #8
  br label %96

96:                                               ; preds = %93, %90
  call void @free(ptr noundef nonnull %81) #8
  br label %GLXGC_DestroyOGLContext.exit

GLXGC_DestroyOGLContext.exit:                     ; preds = %80, %96
  call void @free(ptr noundef nonnull %calloc.i) #8
  br label %102

97:                                               ; preds = %74
  store i32 %spec.select, ptr %78, align 8
  %98 = getelementptr inbounds i8, ptr %78, i64 4
  store i32 %3, ptr %98, align 4
  %99 = getelementptr inbounds i8, ptr %78, i64 8
  store ptr %calloc.i, ptr %99, align 8
  %100 = getelementptr inbounds i8, ptr %78, i64 16
  store ptr %10, ptr %100, align 8
  %101 = ptrtoint ptr %78 to i64
  br label %102

102:                                              ; preds = %97, %GLXGC_DestroyOGLContext.exit, %69, %49, %34, %28, %21, %12
  %.0 = phi i64 [ 0, %12 ], [ 0, %21 ], [ 0, %28 ], [ 0, %34 ], [ 0, %69 ], [ 0, %GLXGC_DestroyOGLContext.exit ], [ %101, %97 ], [ 0, %49 ]
  ret i64 %.0
}